; ModuleID = '17/1293.c'
source_filename = "17/1293.c"
target datalayout = "e-m:e-p270:32:32-p271:32:32-p272:64:64-i64:64-f80:128-n8:16:32:64-S128"
target triple = "x86_64-pc-linux-gnu"

@.str = private unnamed_addr constant [3 x i8] c"%c\00", align 1
@.str.1 = private unnamed_addr constant [2 x i8] c"\0A\00", align 1

; Function Attrs: noinline nounwind uwtable
define dso_local i32 @main() #0 {
  %1 = alloca i32, align 4
  %2 = alloca i32, align 4
  %3 = alloca i32, align 4
  %4 = alloca i32, align 4
  %5 = alloca i32, align 4
  %6 = alloca [1000 x i8], align 16
  %7 = alloca [1000 x i8], align 16
  store i32 0, i32* %1, align 4
  store i32 0, i32* %5, align 4
  br label %8

8:                                                ; preds = %175, %0
  %9 = getelementptr inbounds [1000 x i8], [1000 x i8]* %6, i64 0, i64 0
  %10 = call i32 (i8*, ...) bitcast (i32 (...)* @gets to i32 (i8*, ...)*)(i8* %9)
  %11 = sext i32 %10 to i64
  %12 = inttoptr i64 %11 to i8*
  %13 = icmp ne i8* %12, null
  br i1 %13, label %14, label %177

14:                                               ; preds = %8
  %15 = getelementptr inbounds [1000 x i8], [1000 x i8]* %6, i64 0, i64 0
  %16 = call i64 @strlen(i8* %15) #3
  %17 = trunc i64 %16 to i32
  store i32 %17, i32* %5, align 4
  store i32 0, i32* %2, align 4
  br label %18

18:                                               ; preds = %26, %14
  %19 = load i32, i32* %2, align 4
  %20 = load i32, i32* %5, align 4
  %21 = icmp slt i32 %19, %20
  br i1 %21, label %22, label %29

22:                                               ; preds = %18
  %23 = load i32, i32* %2, align 4
  %24 = sext i32 %23 to i64
  %25 = getelementptr inbounds [1000 x i8], [1000 x i8]* %7, i64 0, i64 %24
  store i8 99, i8* %25, align 1
  br label %26

26:                                               ; preds = %22
  %27 = load i32, i32* %2, align 4
  %28 = add nsw i32 %27, 1
  store i32 %28, i32* %2, align 4
  br label %18

29:                                               ; preds = %18
  %30 = load i32, i32* %2, align 4
  %31 = sext i32 %30 to i64
  %32 = getelementptr inbounds [1000 x i8], [1000 x i8]* %7, i64 0, i64 %31
  store i8 0, i8* %32, align 1
  %33 = load i32, i32* %5, align 4
  %34 = sub nsw i32 %33, 1
  store i32 %34, i32* %2, align 4
  br label %35

35:                                               ; preds = %135, %29
  %36 = load i32, i32* %2, align 4
  %37 = icmp sge i32 %36, 0
  br i1 %37, label %38, label %138

38:                                               ; preds = %35
  %39 = load i32, i32* %2, align 4
  %40 = sext i32 %39 to i64
  %41 = getelementptr inbounds [1000 x i8], [1000 x i8]* %6, i64 0, i64 %40
  %42 = load i8, i8* %41, align 1
  %43 = sext i8 %42 to i32
  %44 = icmp ne i32 %43, 40
  br i1 %44, label %45, label %56

45:                                               ; preds = %38
  %46 = load i32, i32* %2, align 4
  %47 = sext i32 %46 to i64
  %48 = getelementptr inbounds [1000 x i8], [1000 x i8]* %6, i64 0, i64 %47
  %49 = load i8, i8* %48, align 1
  %50 = sext i8 %49 to i32
  %51 = icmp ne i32 %50, 41
  br i1 %51, label %52, label %56

52:                                               ; preds = %45
  %53 = load i32, i32* %2, align 4
  %54 = sext i32 %53 to i64
  %55 = getelementptr inbounds [1000 x i8], [1000 x i8]* %7, i64 0, i64 %54
  store i8 32, i8* %55, align 1
  br label %134

56:                                               ; preds = %45, %38
  %57 = load i32, i32* %2, align 4
  %58 = sext i32 %57 to i64
  %59 = getelementptr inbounds [1000 x i8], [1000 x i8]* %6, i64 0, i64 %58
  %60 = load i8, i8* %59, align 1
  %61 = sext i8 %60 to i32
  %62 = icmp eq i32 %61, 41
  br i1 %62, label %63, label %74

63:                                               ; preds = %56
  %64 = load i32, i32* %2, align 4
  %65 = sext i32 %64 to i64
  %66 = getelementptr inbounds [1000 x i8], [1000 x i8]* %7, i64 0, i64 %65
  %67 = load i8, i8* %66, align 1
  %68 = sext i8 %67 to i32
  %69 = icmp ne i32 %68, 32
  br i1 %69, label %70, label %74

70:                                               ; preds = %63
  %71 = load i32, i32* %2, align 4
  %72 = sext i32 %71 to i64
  %73 = getelementptr inbounds [1000 x i8], [1000 x i8]* %7, i64 0, i64 %72
  store i8 63, i8* %73, align 1
  br label %133

74:                                               ; preds = %63, %56
  %75 = load i32, i32* %2, align 4
  %76 = sext i32 %75 to i64
  %77 = getelementptr inbounds [1000 x i8], [1000 x i8]* %6, i64 0, i64 %76
  %78 = load i8, i8* %77, align 1
  %79 = sext i8 %78 to i32
  %80 = icmp eq i32 %79, 40
  br i1 %80, label %81, label %132

81:                                               ; preds = %74
  %82 = load i32, i32* %2, align 4
  %83 = load i32, i32* %5, align 4
  %84 = sub nsw i32 %83, 1
  %85 = icmp eq i32 %82, %84
  br i1 %85, label %86, label %90

86:                                               ; preds = %81
  %87 = load i32, i32* %2, align 4
  %88 = sext i32 %87 to i64
  %89 = getelementptr inbounds [1000 x i8], [1000 x i8]* %7, i64 0, i64 %88
  store i8 36, i8* %89, align 1
  br label %131

90:                                               ; preds = %81
  %91 = load i32, i32* %2, align 4
  %92 = add nsw i32 %91, 1
  store i32 %92, i32* %3, align 4
  br label %93

93:                                               ; preds = %119, %90
  %94 = load i32, i32* %3, align 4
  %95 = load i32, i32* %5, align 4
  %96 = icmp slt i32 %94, %95
  br i1 %96, label %97, label %122

97:                                               ; preds = %93
  %98 = load i32, i32* %3, align 4
  %99 = sext i32 %98 to i64
  %100 = getelementptr inbounds [1000 x i8], [1000 x i8]* %6, i64 0, i64 %99
  %101 = load i8, i8* %100, align 1
  %102 = sext i8 %101 to i32
  %103 = icmp eq i32 %102, 41
  br i1 %103, label %104, label %118

104:                                              ; preds = %97
  %105 = load i32, i32* %3, align 4
  %106 = sext i32 %105 to i64
  %107 = getelementptr inbounds [1000 x i8], [1000 x i8]* %7, i64 0, i64 %106
  %108 = load i8, i8* %107, align 1
  %109 = sext i8 %108 to i32
  %110 = icmp ne i32 %109, 32
  br i1 %110, label %111, label %118

111:                                              ; preds = %104
  %112 = load i32, i32* %3, align 4
  %113 = sext i32 %112 to i64
  %114 = getelementptr inbounds [1000 x i8], [1000 x i8]* %7, i64 0, i64 %113
  store i8 32, i8* %114, align 1
  %115 = load i32, i32* %2, align 4
  %116 = sext i32 %115 to i64
  %117 = getelementptr inbounds [1000 x i8], [1000 x i8]* %7, i64 0, i64 %116
  store i8 32, i8* %117, align 1
  br label %122

118:                                              ; preds = %104, %97
  br label %119

119:                                              ; preds = %118
  %120 = load i32, i32* %3, align 4
  %121 = add nsw i32 %120, 1
  store i32 %121, i32* %3, align 4
  br label %93

122:                                              ; preds = %111, %93
  %123 = load i32, i32* %3, align 4
  %124 = load i32, i32* %5, align 4
  %125 = icmp eq i32 %123, %124
  br i1 %125, label %126, label %130

126:                                              ; preds = %122
  %127 = load i32, i32* %2, align 4
  %128 = sext i32 %127 to i64
  %129 = getelementptr inbounds [1000 x i8], [1000 x i8]* %7, i64 0, i64 %128
  store i8 36, i8* %129, align 1
  br label %130

130:                                              ; preds = %126, %122
  br label %131

131:                                              ; preds = %130, %86
  br label %132

132:                                              ; preds = %131, %74
  br label %133

133:                                              ; preds = %132, %70
  br label %134

134:                                              ; preds = %133, %52
  br label %135

135:                                              ; preds = %134
  %136 = load i32, i32* %2, align 4
  %137 = add nsw i32 %136, -1
  store i32 %137, i32* %2, align 4
  br label %35

138:                                              ; preds = %35
  store i32 0, i32* %2, align 4
  br label %139

139:                                              ; preds = %153, %138
  %140 = load i32, i32* %2, align 4
  %141 = sext i32 %140 to i64
  %142 = getelementptr inbounds [1000 x i8], [1000 x i8]* %6, i64 0, i64 %141
  %143 = load i8, i8* %142, align 1
  %144 = sext i8 %143 to i32
  %145 = icmp ne i32 %144, 0
  br i1 %145, label %146, label %156

146:                                              ; preds = %139
  %147 = load i32, i32* %2, align 4
  %148 = sext i32 %147 to i64
  %149 = getelementptr inbounds [1000 x i8], [1000 x i8]* %6, i64 0, i64 %148
  %150 = load i8, i8* %149, align 1
  %151 = sext i8 %150 to i32
  %152 = call i32 (i8*, ...) @printf(i8* getelementptr inbounds ([3 x i8], [3 x i8]* @.str, i64 0, i64 0), i32 %151)
  br label %153

153:                                              ; preds = %146
  %154 = load i32, i32* %2, align 4
  %155 = add nsw i32 %154, 1
  store i32 %155, i32* %2, align 4
  br label %139

156:                                              ; preds = %139
  %157 = call i32 (i8*, ...) @printf(i8* getelementptr inbounds ([2 x i8], [2 x i8]* @.str.1, i64 0, i64 0))
  store i32 0, i32* %2, align 4
  br label %158

158:                                              ; preds = %172, %156
  %159 = load i32, i32* %2, align 4
  %160 = sext i32 %159 to i64
  %161 = getelementptr inbounds [1000 x i8], [1000 x i8]* %6, i64 0, i64 %160
  %162 = load i8, i8* %161, align 1
  %163 = sext i8 %162 to i32
  %164 = icmp ne i32 %163, 0
  br i1 %164, label %165, label %175

165:                                              ; preds = %158
  %166 = load i32, i32* %2, align 4
  %167 = sext i32 %166 to i64
  %168 = getelementptr inbounds [1000 x i8], [1000 x i8]* %7, i64 0, i64 %167
  %169 = load i8, i8* %168, align 1
  %170 = sext i8 %169 to i32
  %171 = call i32 (i8*, ...) @printf(i8* getelementptr inbounds ([3 x i8], [3 x i8]* @.str, i64 0, i64 0), i32 %170)
  br label %172

172:                                              ; preds = %165
  %173 = load i32, i32* %2, align 4
  %174 = add nsw i32 %173, 1
  store i32 %174, i32* %2, align 4
  br label %158

175:                                              ; preds = %158
  %176 = call i32 (i8*, ...) @printf(i8* getelementptr inbounds ([2 x i8], [2 x i8]* @.str.1, i64 0, i64 0))
  br label %8

177:                                              ; preds = %8
  %178 = call i32 @getchar()
  %179 = call i32 @getchar()
  %180 = load i32, i32* %1, align 4
  ret i32 %180
}

declare dso_local i32 @gets(...) #1

; Function Attrs: nounwind readonly
declare dso_local i64 @strlen(i8*) #2

declare dso_local i32 @printf(i8*, ...) #1

declare dso_local i32 @getchar() #1


!llvm.module.flags = !{!0}
!llvm.ident = !{!1}

!0 = !{i32 1, !"wchar_size", i32 4}
!1 = !{!"clang version 10.0.0-4ubuntu1 "}
